; Function Attrs: nounwind uwtable
define noalias nonnull ptr @l_Lean_Meta_Attribute_Recursor_getMajorPos___lambda__2___boxed(ptr noundef %0, ptr noundef %1, ptr noundef %2, ptr noundef %3, ptr noundef %4) local_unnamed_addr #0 {
  %6 = ptrtoint ptr %0 to i64
  %7 = and i64 %6, 1
  %.not.i19 = icmp eq i64 %7, 0
  br i1 %.not.i19, label %.critedge.i.i, label %8, !prof !12

8:                                                ; preds = %5
  %9 = icmp ult ptr %0, inttoptr (i64 2 to ptr)
  br i1 %9, label %lean_nat_sub.exit.i, label %10

10:                                               ; preds = %8
  %11 = add i64 %6, -2
  %12 = inttoptr i64 %11 to ptr
  br label %lean_nat_sub.exit.i

.critedge.i.i:                                    ; preds = %5
  %13 = tail call ptr @lean_nat_big_sub(ptr noundef %0, ptr noundef nonnull inttoptr (i64 3 to ptr)) #6
  br label %lean_nat_sub.exit.i

lean_nat_sub.exit.i:                              ; preds = %.critedge.i.i, %10, %8
  %.1.i.i = phi ptr [ %13, %.critedge.i.i ], [ %12, %10 ], [ inttoptr (i64 1 to ptr), %8 ]
  tail call void @lean_inc_heartbeat() #6
  %14 = tail call noalias ptr @mi_malloc_small(i64 noundef 24) #6
  %15 = icmp eq ptr %14, null
  br i1 %15, label %16, label %l_Lean_Meta_Attribute_Recursor_getMajorPos___lambda__2.exit

16:                                               ; preds = %lean_nat_sub.exit.i
  tail call void @lean_internal_panic_out_of_memory() #7
  unreachable

l_Lean_Meta_Attribute_Recursor_getMajorPos___lambda__2.exit: ; preds = %lean_nat_sub.exit.i
  %17 = getelementptr inbounds nuw i8, ptr %14, i64 4
  store i32 1, ptr %14, align 4, !tbaa !8
  store i32 131096, ptr %17, align 4
  %18 = getelementptr inbounds nuw i8, ptr %14, i64 8
  store ptr %.1.i.i, ptr %18, align 8, !tbaa !4
  %19 = getelementptr inbounds nuw i8, ptr %14, i64 16
  store ptr %4, ptr %19, align 8, !tbaa !4
  %20 = ptrtoint ptr %3 to i64
  %21 = and i64 %20, 1
  %.not = icmp eq i64 %21, 0
  br i1 %.not, label %22, label %lean_dec.exit12

22:                                               ; preds = %l_Lean_Meta_Attribute_Recursor_getMajorPos___lambda__2.exit
  %23 = load i32, ptr %3, align 4, !tbaa !8
  %24 = icmp sgt i32 %23, 1
  br i1 %24, label %25, label %27, !prof !11

25:                                               ; preds = %22
  %26 = add nsw i32 %23, -1
  store i32 %26, ptr %3, align 4, !tbaa !8
  br label %lean_dec.exit12

27:                                               ; preds = %22
  %.not.i = icmp eq i32 %23, 0
  br i1 %.not.i, label %lean_dec.exit12, label %28

28:                                               ; preds = %27
  tail call void @lean_dec_ref_cold(ptr noundef nonnull %3) #6
  br label %lean_dec.exit12

lean_dec.exit12:                                  ; preds = %28, %27, %25, %l_Lean_Meta_Attribute_Recursor_getMajorPos___lambda__2.exit
  %29 = ptrtoint ptr %2 to i64
  %30 = and i64 %29, 1
  %.not20 = icmp eq i64 %30, 0
  br i1 %.not20, label %31, label %lean_dec.exit11

31:                                               ; preds = %lean_dec.exit12
  %32 = load i32, ptr %2, align 4, !tbaa !8
  %33 = icmp sgt i32 %32, 1
  br i1 %33, label %34, label %36, !prof !11

34:                                               ; preds = %31
  %35 = add nsw i32 %32, -1
  store i32 %35, ptr %2, align 4, !tbaa !8
  br label %lean_dec.exit11

36:                                               ; preds = %31
  %.not.i13 = icmp eq i32 %32, 0
  br i1 %.not.i13, label %lean_dec.exit11, label %37

37:                                               ; preds = %36
  tail call void @lean_dec_ref_cold(ptr noundef nonnull %2) #6
  br label %lean_dec.exit11

lean_dec.exit11:                                  ; preds = %37, %36, %34, %lean_dec.exit12
  %38 = ptrtoint ptr %1 to i64
  %39 = and i64 %38, 1
  %.not21 = icmp eq i64 %39, 0
  br i1 %.not21, label %40, label %lean_dec.exit10

40:                                               ; preds = %lean_dec.exit11
  %41 = load i32, ptr %1, align 4, !tbaa !8
  %42 = icmp sgt i32 %41, 1
  br i1 %42, label %43, label %45, !prof !11

43:                                               ; preds = %40
  %44 = add nsw i32 %41, -1
  store i32 %44, ptr %1, align 4, !tbaa !8
  br label %lean_dec.exit10

45:                                               ; preds = %40
  %.not.i15 = icmp eq i32 %41, 0
  br i1 %.not.i15, label %lean_dec.exit10, label %46

46:                                               ; preds = %45
  tail call void @lean_dec_ref_cold(ptr noundef nonnull %1) #6
  br label %lean_dec.exit10

lean_dec.exit10:                                  ; preds = %46, %45, %43, %lean_dec.exit11
  br i1 %.not.i19, label %47, label %lean_dec.exit

47:                                               ; preds = %lean_dec.exit10
  %48 = load i32, ptr %0, align 4, !tbaa !8
  %49 = icmp sgt i32 %48, 1
  br i1 %49, label %50, label %52, !prof !11

50:                                               ; preds = %47
  %51 = add nsw i32 %48, -1
  store i32 %51, ptr %0, align 4, !tbaa !8
  br label %lean_dec.exit

52:                                               ; preds = %47
  %.not.i17 = icmp eq i32 %48, 0
  br i1 %.not.i17, label %lean_dec.exit, label %53

53:                                               ; preds = %52
  tail call void @lean_dec_ref_cold(ptr noundef nonnull %0) #6
  br label %lean_dec.exit

lean_dec.exit:                                    ; preds = %53, %52, %50, %lean_dec.exit10
  ret ptr %14
}